; Function Attrs: mustprogress nounwind uwtable
define hidden void @_ZNK5clang6driver10toolchains4OHOS19AddCXXStdlibLibArgsERKN4llvm3opt7ArgListERNS3_11SmallVectorIPKcLj16EEE(ptr noundef nonnull align 8 dereferenceable(4680) %0, ptr noundef nonnull align 8 dereferenceable(176) %1, ptr noundef nonnull align 8 dereferenceable(144) %2) unnamed_addr #0 align 2 {
  %4 = load ptr, ptr %0, align 8
  %5 = getelementptr inbounds i8, ptr %4, i64 584
  %6 = load ptr, ptr %5, align 8
  %7 = tail call noundef i32 %6(ptr noundef nonnull align 8 dereferenceable(4680) %0, ptr noundef nonnull align 8 dereferenceable(176) %1) #13
  %cond = icmp eq i32 %7, 0
  br i1 %cond, label %8, label %39

8:                                                ; preds = %3
  %9 = tail call noundef i64 @_ZNK4llvm15SmallVectorBaseIjE4sizeEv(ptr noundef nonnull align 8 dereferenceable(16) %2) #13
  %10 = add i64 %9, 1
  %11 = tail call noundef i64 @_ZNK4llvm15SmallVectorBaseIjE8capacityEv(ptr noundef nonnull align 8 dereferenceable(16) %2) #13
  %.not.i.i.i = icmp ugt i64 %10, %11
  br i1 %.not.i.i.i, label %12, label %_ZN4llvm23SmallVectorTemplateBaseIPKcLb1EE9push_backES2_.exit

12:                                               ; preds = %8
  %13 = getelementptr inbounds i8, ptr %2, i64 16
  tail call void @_ZN4llvm15SmallVectorBaseIjE8grow_podEPvmm(ptr noundef nonnull align 8 dereferenceable(16) %2, ptr noundef nonnull %13, i64 noundef %10, i64 noundef 8) #13
  br label %_ZN4llvm23SmallVectorTemplateBaseIPKcLb1EE9push_backES2_.exit

_ZN4llvm23SmallVectorTemplateBaseIPKcLb1EE9push_backES2_.exit: ; preds = %8, %12
  %14 = load ptr, ptr %2, align 8
  %15 = tail call noundef i64 @_ZNK4llvm15SmallVectorBaseIjE4sizeEv(ptr noundef nonnull align 8 dereferenceable(16) %2) #13
  %16 = getelementptr inbounds ptr, ptr %14, i64 %15
  store i64 ptrtoint (ptr @.str.21 to i64), ptr %16, align 1
  %17 = tail call noundef i64 @_ZNK4llvm15SmallVectorBaseIjE4sizeEv(ptr noundef nonnull align 8 dereferenceable(16) %2) #13
  %18 = add i64 %17, 1
  tail call void @_ZN4llvm15SmallVectorBaseIjE8set_sizeEm(ptr noundef nonnull align 8 dereferenceable(16) %2, i64 noundef %18) #13
  %19 = tail call noundef i64 @_ZNK4llvm15SmallVectorBaseIjE4sizeEv(ptr noundef nonnull align 8 dereferenceable(16) %2) #13
  %20 = add i64 %19, 1
  %21 = tail call noundef i64 @_ZNK4llvm15SmallVectorBaseIjE8capacityEv(ptr noundef nonnull align 8 dereferenceable(16) %2) #13
  %.not.i.i.i5 = icmp ugt i64 %20, %21
  br i1 %.not.i.i.i5, label %22, label %_ZN4llvm23SmallVectorTemplateBaseIPKcLb1EE9push_backES2_.exit6

22:                                               ; preds = %_ZN4llvm23SmallVectorTemplateBaseIPKcLb1EE9push_backES2_.exit
  %23 = getelementptr inbounds i8, ptr %2, i64 16
  tail call void @_ZN4llvm15SmallVectorBaseIjE8grow_podEPvmm(ptr noundef nonnull align 8 dereferenceable(16) %2, ptr noundef nonnull %23, i64 noundef %20, i64 noundef 8) #13
  br label %_ZN4llvm23SmallVectorTemplateBaseIPKcLb1EE9push_backES2_.exit6

_ZN4llvm23SmallVectorTemplateBaseIPKcLb1EE9push_backES2_.exit6: ; preds = %_ZN4llvm23SmallVectorTemplateBaseIPKcLb1EE9push_backES2_.exit, %22
  %24 = load ptr, ptr %2, align 8
  %25 = tail call noundef i64 @_ZNK4llvm15SmallVectorBaseIjE4sizeEv(ptr noundef nonnull align 8 dereferenceable(16) %2) #13
  %26 = getelementptr inbounds ptr, ptr %24, i64 %25
  store i64 ptrtoint (ptr @.str.22 to i64), ptr %26, align 1
  %27 = tail call noundef i64 @_ZNK4llvm15SmallVectorBaseIjE4sizeEv(ptr noundef nonnull align 8 dereferenceable(16) %2) #13
  %28 = add i64 %27, 1
  tail call void @_ZN4llvm15SmallVectorBaseIjE8set_sizeEm(ptr noundef nonnull align 8 dereferenceable(16) %2, i64 noundef %28) #13
  %29 = tail call noundef i64 @_ZNK4llvm15SmallVectorBaseIjE4sizeEv(ptr noundef nonnull align 8 dereferenceable(16) %2) #13
  %30 = add i64 %29, 1
  %31 = tail call noundef i64 @_ZNK4llvm15SmallVectorBaseIjE8capacityEv(ptr noundef nonnull align 8 dereferenceable(16) %2) #13
  %.not.i.i.i7 = icmp ugt i64 %30, %31
  br i1 %.not.i.i.i7, label %32, label %_ZN4llvm23SmallVectorTemplateBaseIPKcLb1EE9push_backES2_.exit8

32:                                               ; preds = %_ZN4llvm23SmallVectorTemplateBaseIPKcLb1EE9push_backES2_.exit6
  %33 = getelementptr inbounds i8, ptr %2, i64 16
  tail call void @_ZN4llvm15SmallVectorBaseIjE8grow_podEPvmm(ptr noundef nonnull align 8 dereferenceable(16) %2, ptr noundef nonnull %33, i64 noundef %30, i64 noundef 8) #13
  br label %_ZN4llvm23SmallVectorTemplateBaseIPKcLb1EE9push_backES2_.exit8

_ZN4llvm23SmallVectorTemplateBaseIPKcLb1EE9push_backES2_.exit8: ; preds = %_ZN4llvm23SmallVectorTemplateBaseIPKcLb1EE9push_backES2_.exit6, %32
  %34 = load ptr, ptr %2, align 8
  %35 = tail call noundef i64 @_ZNK4llvm15SmallVectorBaseIjE4sizeEv(ptr noundef nonnull align 8 dereferenceable(16) %2) #13
  %36 = getelementptr inbounds ptr, ptr %34, i64 %35
  store i64 ptrtoint (ptr @.str.23 to i64), ptr %36, align 1
  %37 = tail call noundef i64 @_ZNK4llvm15SmallVectorBaseIjE4sizeEv(ptr noundef nonnull align 8 dereferenceable(16) %2) #13
  %38 = add i64 %37, 1
  tail call void @_ZN4llvm15SmallVectorBaseIjE8set_sizeEm(ptr noundef nonnull align 8 dereferenceable(16) %2, i64 noundef %38) #13
  br label %39

39:                                               ; preds = %3, %_ZN4llvm23SmallVectorTemplateBaseIPKcLb1EE9push_backES2_.exit8
  ret void
}